(dp0
S'seychelles'
p1
(lp2
S'Flights/airports/mumbai.html'
p3
asS'san'
p4
(lp5
g3
asS'doha'
p6
(lp7
g3
asS'mexico'
p8
(lp9
g3
asS'brisbane'
p10
(lp11
g3
asS'cairo'
p12
(lp13
g3
asS'is'
p14
(lp15
g3
asS'sydney'
p16
(lp17
g3
asS'Fight'
p18
(lp19
g3
asS'cologne'
p20
(lp21
g3
asS'rio'
p22
(lp23
g3
asS'milan'
p24
(lp25
g3
asS'liverpool'
p26
(lp27
g3
asS'colombo'
p28
(lp29
g3
asS'entienne'
p30
(lp31
g3
asS'lisbon'
p32
(lp33
g3
asS'amsterdam'
p34
(lp35
g3
asS'copenhagen'
p36
(lp37
g3
asS'seattle'
p38
(lp39
g3
asS'atlanta'
p40
(lp41
g3
asS'mauritius'
p42
(lp43
g3
asS'osaka'
p44
(lp45
g3
asS'from'
p46
(lp47
g3
asS'durban'
p48
(lp49
g3
asS'istanbul'
p50
(lp51
g3
asS'mumbai'
p52
(lp53
g3
asS'paris'
p54
(lp55
g3
asS'oslo'
p56
(lp57
g3
asS'shanghai'
p58
(lp59
g3
asS'perth'
p60
(lp61
g3
asS'lumpur'
p62
(lp63
g3
asS'manila'
p64
(lp65
g3
asS'kolkata'
p66
(lp67
g3
asS'vancouver'
p68
(lp69
g3
asS'naples'
p70
(lp71
g3
asS'bahrain'
p72
(lp73
g3
asS'bangalore'
p74
(lp75
g3
asS'chennai'
p76
(lp77
g3
asS'seoul'
p78
(lp79
g3
asS'geneva'
p80
(lp81
g3
asS'singapore'
p82
(lp83
g3
asS'This'
p84
(lp85
g3
asS'moscow'
p86
(lp87
g3
asS'delhi'
p88
(lp89
g3
asS'here'
p90
(lp91
g3
asS'ankara'
p92
(lp93
g3
asS'guangzhou'
p94
(lp95
g3
asS'cape'
p96
(lp97
g3
asS'The'
p98
(lp99
g3
asS'jeddah'
p100
(lp101
g3
asS'town'
p102
(lp103
g3
asS'southampton'
p104
(lp105
g3
asS'dubai'
p106
(lp107
g3
asS'kigali'
p108
(lp109
g3
asS'are:'
p110
(lp111
g3
asS'tunis'
p112
(lp113
g3
asS'dublin'
p114
(lp115
g3
asS'wellington'
p116
(lp117
g3
asS'detroit'
p118
(lp119
g3
asS'janiero'
p120
(lp121
g3
asS'melbourne'
p122
(lp123
g3
asS'de'
p124
(lp125
g3
asS'city'
p126
(lp127
g3
asS'kuala'
p128
(lp129
g3
asS'cannes'
p130
(lp131
g3
asS'lima'
p132
(lp133
g3
asS'manchester'
p134
(lp135
g3
asS'frankfurt'
p136
(lp137
g3
asS'nairobi'
p138
(lp139
g3
asS'francisco'
p140
(lp141
g3
asS'london'
p142
(lp143
g3
as.